; Function Attrs: mustprogress nofree norecurse nosync nounwind willreturn memory(argmem: readwrite) uwtable
define noundef zeroext i1 @_ZN6google8protobuf2io16CodedInputStream34DecrementRecursionDepthAndPopLimitEi(ptr noundef nonnull align 8 captures(none) dereferenceable(80) initializes((40, 44)) %0, i32 noundef %1) local_unnamed_addr #8 align 2 personality ptr @__gxx_personality_v0 {
  %3 = getelementptr inbounds nuw i8, ptr %0, i64 36
  %4 = load i8, ptr %3, align 4, !tbaa !24, !range !30, !noundef !31
  %5 = getelementptr inbounds nuw i8, ptr %0, i64 40
  store i32 %1, ptr %5, align 8, !tbaa !21
  %6 = getelementptr inbounds nuw i8, ptr %0, i64 44
  %7 = load i32, ptr %6, align 4, !tbaa !16
  %8 = getelementptr inbounds nuw i8, ptr %0, i64 8
  %9 = load ptr, ptr %8, align 8, !tbaa !14
  %10 = sext i32 %7 to i64
  %11 = getelementptr inbounds i8, ptr %9, i64 %10
  store ptr %11, ptr %8, align 8, !tbaa !14
  %12 = getelementptr inbounds nuw i8, ptr %0, i64 48
  %13 = load i32, ptr %12, align 8, !tbaa !23
  %14 = tail call i32 @llvm.smin.i32(i32 %13, i32 %1)
  %15 = getelementptr inbounds nuw i8, ptr %0, i64 24
  %16 = load i32, ptr %15, align 8, !tbaa !20
  %17 = icmp slt i32 %14, %16
  br i1 %17, label %18, label %_ZN6google8protobuf2io16CodedInputStream8PopLimitEi.exit

18:                                               ; preds = %2
  %19 = sub nsw i32 %16, %14
  %20 = sext i32 %19 to i64
  %21 = sub nsw i64 0, %20
  %22 = getelementptr inbounds i8, ptr %11, i64 %21
  store ptr %22, ptr %8, align 8, !tbaa !14
  br label %_ZN6google8protobuf2io16CodedInputStream8PopLimitEi.exit

_ZN6google8protobuf2io16CodedInputStream8PopLimitEi.exit: ; preds = %2, %18
  %.sink.i.i = phi i32 [ %19, %18 ], [ 0, %2 ]
  %23 = trunc nuw i8 %4 to i1
  store i32 %.sink.i.i, ptr %6, align 4, !tbaa !16
  store i8 0, ptr %3, align 4, !tbaa !24
  %24 = getelementptr inbounds nuw i8, ptr %0, i64 52
  %25 = load i32, ptr %24, align 4, !tbaa !25
  %26 = add nsw i32 %25, 1
  store i32 %26, ptr %24, align 4, !tbaa !25
  ret i1 %23
}